

Disassembly of section .text._D9cdvecfill4testFhZNhG16h:

0000000000000000 <_D9cdvecfill4testFhZNhG16h>:
   0:	50                   	push   rax
   1:	c5 f9 6e c7          	vmovd  xmm0,edi
   5:	c5 f1 ef c9          	vpxor  xmm1,xmm1,xmm1
   9:	c4 e2 79 00 c1       	vpshufb xmm0,xmm0,xmm1
   e:	59                   	pop    rcx
   f:	c3                   	ret    

Disassembly of section .text._D9cdvecfill4testFPhZNhG16h:

0000000000000000 <_D9cdvecfill4testFPhZNhG16h>:
   0:	50                   	push   rax
   1:	0f b6 07             	movzx  eax,BYTE PTR [rdi]
   4:	c5 f9 6e c0          	vmovd  xmm0,eax
   8:	c5 f1 ef c9          	vpxor  xmm1,xmm1,xmm1
   c:	c4 e2 79 00 c1       	vpshufb xmm0,xmm0,xmm1
  11:	59                   	pop    rcx
  12:	c3                   	ret    
	...

Disassembly of section .text._D9cdvecfill4testFgZNhG16g:

0000000000000000 <_D9cdvecfill4testFgZNhG16g>:
   0:	50                   	push   rax
   1:	c5 f9 6e c7          	vmovd  xmm0,edi
   5:	c5 f1 ef c9          	vpxor  xmm1,xmm1,xmm1
   9:	c4 e2 79 00 c1       	vpshufb xmm0,xmm0,xmm1
   e:	59                   	pop    rcx
   f:	c3                   	ret    

Disassembly of section .text._D9cdvecfill4testFPgZNhG16g:

0000000000000000 <_D9cdvecfill4testFPgZNhG16g>:
   0:	50                   	push   rax
   1:	0f be 07             	movsx  eax,BYTE PTR [rdi]
   4:	c5 f9 6e c0          	vmovd  xmm0,eax
   8:	c5 f1 ef c9          	vpxor  xmm1,xmm1,xmm1
   c:	c4 e2 79 00 c1       	vpshufb xmm0,xmm0,xmm1
  11:	59                   	pop    rcx
  12:	c3                   	ret    
	...

Disassembly of section .text._D9cdvecfill4testFtZNhG8t:

0000000000000000 <_D9cdvecfill4testFtZNhG8t>:
   0:	50                   	push   rax
   1:	c5 f9 6e c7          	vmovd  xmm0,edi
   5:	c5 f9 61 c0          	vpunpcklwd xmm0,xmm0,xmm0
   9:	c5 f9 70 c0 00       	vpshufd xmm0,xmm0,0x0
   e:	59                   	pop    rcx
   f:	c3                   	ret    

Disassembly of section .text._D9cdvecfill4testFPtZNhG8t:

0000000000000000 <_D9cdvecfill4testFPtZNhG8t>:
   0:	50                   	push   rax
   1:	0f b7 07             	movzx  eax,WORD PTR [rdi]
   4:	c5 f9 6e c0          	vmovd  xmm0,eax
   8:	c5 f9 61 c0          	vpunpcklwd xmm0,xmm0,xmm0
   c:	c5 f9 70 c0 00       	vpshufd xmm0,xmm0,0x0
  11:	59                   	pop    rcx
  12:	c3                   	ret    
	...

Disassembly of section .text._D9cdvecfill4testFsZNhG8s:

0000000000000000 <_D9cdvecfill4testFsZNhG8s>:
   0:	50                   	push   rax
   1:	c5 f9 6e c7          	vmovd  xmm0,edi
   5:	c5 f9 61 c0          	vpunpcklwd xmm0,xmm0,xmm0
   9:	c5 f9 70 c0 00       	vpshufd xmm0,xmm0,0x0
   e:	59                   	pop    rcx
   f:	c3                   	ret    

Disassembly of section .text._D9cdvecfill4testFPsZNhG8s:

0000000000000000 <_D9cdvecfill4testFPsZNhG8s>:
   0:	50                   	push   rax
   1:	0f bf 07             	movsx  eax,WORD PTR [rdi]
   4:	c5 f9 6e c0          	vmovd  xmm0,eax
   8:	c5 f9 61 c0          	vpunpcklwd xmm0,xmm0,xmm0
   c:	c5 f9 70 c0 00       	vpshufd xmm0,xmm0,0x0
  11:	59                   	pop    rcx
  12:	c3                   	ret    
	...

Disassembly of section .text._D9cdvecfill4testFkZNhG4k:

0000000000000000 <_D9cdvecfill4testFkZNhG4k>:
   0:	50                   	push   rax
   1:	c5 f9 6e c7          	vmovd  xmm0,edi
   5:	c5 f9 70 c0 00       	vpshufd xmm0,xmm0,0x0
   a:	59                   	pop    rcx
   b:	c3                   	ret    

Disassembly of section .text._D9cdvecfill4testFPkZNhG4k:

0000000000000000 <_D9cdvecfill4testFPkZNhG4k>:
   0:	50                   	push   rax
   1:	c4 e2 79 18 07       	vbroadcastss xmm0,DWORD PTR [rdi]
   6:	59                   	pop    rcx
   7:	c3                   	ret    

Disassembly of section .text._D9cdvecfill4testFiZNhG4i:

0000000000000000 <_D9cdvecfill4testFiZNhG4i>:
   0:	50                   	push   rax
   1:	c5 f9 6e c7          	vmovd  xmm0,edi
   5:	c5 f9 70 c0 00       	vpshufd xmm0,xmm0,0x0
   a:	59                   	pop    rcx
   b:	c3                   	ret    

Disassembly of section .text._D9cdvecfill4testFPiZNhG4i:

0000000000000000 <_D9cdvecfill4testFPiZNhG4i>:
   0:	50                   	push   rax
   1:	c4 e2 79 18 07       	vbroadcastss xmm0,DWORD PTR [rdi]
   6:	59                   	pop    rcx
   7:	c3                   	ret    

Disassembly of section .text._D9cdvecfill4testFmZNhG2m:

0000000000000000 <_D9cdvecfill4testFmZNhG2m>:
   0:	50                   	push   rax
   1:	c4 e1 f9 6e c7       	vmovq  xmm0,rdi
   6:	c5 f9 6c c0          	vpunpcklqdq xmm0,xmm0,xmm0
   a:	59                   	pop    rcx
   b:	c3                   	ret    

Disassembly of section .text._D9cdvecfill4testFPmZNhG2m:

0000000000000000 <_D9cdvecfill4testFPmZNhG2m>:
   0:	50                   	push   rax
   1:	c5 f9 6c 07          	vpunpcklqdq xmm0,xmm0,XMMWORD PTR [rdi]
   5:	59                   	pop    rcx
   6:	c3                   	ret    
	...

Disassembly of section .text._D9cdvecfill4testFlZNhG2l:

0000000000000000 <_D9cdvecfill4testFlZNhG2l>:
   0:	50                   	push   rax
   1:	c4 e1 f9 6e c7       	vmovq  xmm0,rdi
   6:	c5 f9 6c c0          	vpunpcklqdq xmm0,xmm0,xmm0
   a:	59                   	pop    rcx
   b:	c3                   	ret    

Disassembly of section .text._D9cdvecfill4testFPlZNhG2l:

0000000000000000 <_D9cdvecfill4testFPlZNhG2l>:
   0:	50                   	push   rax
   1:	c5 f9 6c 07          	vpunpcklqdq xmm0,xmm0,XMMWORD PTR [rdi]
   5:	59                   	pop    rcx
   6:	c3                   	ret    
	...

Disassembly of section .text._D9cdvecfill4testFfZNhG4f:

0000000000000000 <_D9cdvecfill4testFfZNhG4f>:
   0:	50                   	push   rax
   1:	c5 fa 11 04 24       	vmovss DWORD PTR [rsp],xmm0
   6:	c5 fa 10 04 24       	vmovss xmm0,DWORD PTR [rsp]
   b:	c5 f8 c6 c0 00       	vshufps xmm0,xmm0,xmm0,0x0
  10:	59                   	pop    rcx
  11:	c3                   	ret    
	...

Disassembly of section .text._D9cdvecfill4testFPfZNhG4f:

0000000000000000 <_D9cdvecfill4testFPfZNhG4f>:
   0:	50                   	push   rax
   1:	c4 e2 79 18 07       	vbroadcastss xmm0,DWORD PTR [rdi]
   6:	59                   	pop    rcx
   7:	c3                   	ret    

Disassembly of section .text._D9cdvecfill4testFdZNhG2d:

0000000000000000 <_D9cdvecfill4testFdZNhG2d>:
   0:	50                   	push   rax
   1:	c5 fb 11 04 24       	vmovsd QWORD PTR [rsp],xmm0
   6:	c5 fb 10 04 24       	vmovsd xmm0,QWORD PTR [rsp]
   b:	c5 f9 14 c0          	vunpcklpd xmm0,xmm0,xmm0
   f:	59                   	pop    rcx
  10:	c3                   	ret    
  11:	00 00                	add    BYTE PTR [rax],al
	...

Disassembly of section .text._D9cdvecfill4testFPdZNhG2d:

0000000000000000 <_D9cdvecfill4testFPdZNhG2d>:
   0:	50                   	push   rax
   1:	c5 fb 10 07          	vmovsd xmm0,QWORD PTR [rdi]
   5:	c5 f9 14 c0          	vunpcklpd xmm0,xmm0,xmm0
   9:	59                   	pop    rcx
   a:	c3                   	ret    
	...

Disassembly of section .text._D9cdvecfill4testFhZNhG32h:

0000000000000000 <_D9cdvecfill4testFhZNhG32h>:
   0:	50                   	push   rax
   1:	c5 f9 6e c7          	vmovd  xmm0,edi
   5:	c5 f1 ef c9          	vpxor  xmm1,xmm1,xmm1
   9:	c4 e2 79 00 c1       	vpshufb xmm0,xmm0,xmm1
   e:	c4 e3 7d 18 c0 01    	vinsertf128 ymm0,ymm0,xmm0,0x1
  14:	59                   	pop    rcx
  15:	c3                   	ret    
	...

Disassembly of section .text._D9cdvecfill4testFPhZNhG32h:

0000000000000000 <_D9cdvecfill4testFPhZNhG32h>:
   0:	50                   	push   rax
   1:	0f b6 07             	movzx  eax,BYTE PTR [rdi]
   4:	c5 f9 6e c0          	vmovd  xmm0,eax
   8:	c5 f1 ef c9          	vpxor  xmm1,xmm1,xmm1
   c:	c4 e2 79 00 c1       	vpshufb xmm0,xmm0,xmm1
  11:	c4 e3 7d 18 c0 01    	vinsertf128 ymm0,ymm0,xmm0,0x1
  17:	59                   	pop    rcx
  18:	c3                   	ret    
  19:	00 00                	add    BYTE PTR [rax],al
	...

Disassembly of section .text._D9cdvecfill4testFgZNhG32g:

0000000000000000 <_D9cdvecfill4testFgZNhG32g>:
   0:	50                   	push   rax
   1:	c5 f9 6e c7          	vmovd  xmm0,edi
   5:	c5 f1 ef c9          	vpxor  xmm1,xmm1,xmm1
   9:	c4 e2 79 00 c1       	vpshufb xmm0,xmm0,xmm1
   e:	c4 e3 7d 18 c0 01    	vinsertf128 ymm0,ymm0,xmm0,0x1
  14:	59                   	pop    rcx
  15:	c3                   	ret    
	...

Disassembly of section .text._D9cdvecfill4testFPgZNhG32g:

0000000000000000 <_D9cdvecfill4testFPgZNhG32g>:
   0:	50                   	push   rax
   1:	0f be 07             	movsx  eax,BYTE PTR [rdi]
   4:	c5 f9 6e c0          	vmovd  xmm0,eax
   8:	c5 f1 ef c9          	vpxor  xmm1,xmm1,xmm1
   c:	c4 e2 79 00 c1       	vpshufb xmm0,xmm0,xmm1
  11:	c4 e3 7d 18 c0 01    	vinsertf128 ymm0,ymm0,xmm0,0x1
  17:	59                   	pop    rcx
  18:	c3                   	ret    
  19:	00 00                	add    BYTE PTR [rax],al
	...

Disassembly of section .text._D9cdvecfill4testFtZNhG16t:

0000000000000000 <_D9cdvecfill4testFtZNhG16t>:
   0:	50                   	push   rax
   1:	c5 f9 6e c7          	vmovd  xmm0,edi
   5:	c5 f9 61 c0          	vpunpcklwd xmm0,xmm0,xmm0
   9:	c5 f9 70 c0 00       	vpshufd xmm0,xmm0,0x0
   e:	c4 e3 7d 18 c0 01    	vinsertf128 ymm0,ymm0,xmm0,0x1
  14:	59                   	pop    rcx
  15:	c3                   	ret    
	...

Disassembly of section .text._D9cdvecfill4testFPtZNhG16t:

0000000000000000 <_D9cdvecfill4testFPtZNhG16t>:
   0:	50                   	push   rax
   1:	0f b7 07             	movzx  eax,WORD PTR [rdi]
   4:	c5 f9 6e c0          	vmovd  xmm0,eax
   8:	c5 f9 61 c0          	vpunpcklwd xmm0,xmm0,xmm0
   c:	c5 f9 70 c0 00       	vpshufd xmm0,xmm0,0x0
  11:	c4 e3 7d 18 c0 01    	vinsertf128 ymm0,ymm0,xmm0,0x1
  17:	59                   	pop    rcx
  18:	c3                   	ret    
  19:	00 00                	add    BYTE PTR [rax],al
	...

Disassembly of section .text._D9cdvecfill4testFsZNhG16s:

0000000000000000 <_D9cdvecfill4testFsZNhG16s>:
   0:	50                   	push   rax
   1:	c5 f9 6e c7          	vmovd  xmm0,edi
   5:	c5 f9 61 c0          	vpunpcklwd xmm0,xmm0,xmm0
   9:	c5 f9 70 c0 00       	vpshufd xmm0,xmm0,0x0
   e:	c4 e3 7d 18 c0 01    	vinsertf128 ymm0,ymm0,xmm0,0x1
  14:	59                   	pop    rcx
  15:	c3                   	ret    
	...

Disassembly of section .text._D9cdvecfill4testFPsZNhG16s:

0000000000000000 <_D9cdvecfill4testFPsZNhG16s>:
   0:	50                   	push   rax
   1:	0f bf 07             	movsx  eax,WORD PTR [rdi]
   4:	c5 f9 6e c0          	vmovd  xmm0,eax
   8:	c5 f9 61 c0          	vpunpcklwd xmm0,xmm0,xmm0
   c:	c5 f9 70 c0 00       	vpshufd xmm0,xmm0,0x0
  11:	c4 e3 7d 18 c0 01    	vinsertf128 ymm0,ymm0,xmm0,0x1
  17:	59                   	pop    rcx
  18:	c3                   	ret    
  19:	00 00                	add    BYTE PTR [rax],al
	...

Disassembly of section .text._D9cdvecfill4testFkZNhG8k:

0000000000000000 <_D9cdvecfill4testFkZNhG8k>:
   0:	50                   	push   rax
   1:	c5 f9 6e c7          	vmovd  xmm0,edi
   5:	c5 f9 70 c0 00       	vpshufd xmm0,xmm0,0x0
   a:	c4 e3 7d 18 c0 01    	vinsertf128 ymm0,ymm0,xmm0,0x1
  10:	59                   	pop    rcx
  11:	c3                   	ret    
	...

Disassembly of section .text._D9cdvecfill4testFPkZNhG8k:

0000000000000000 <_D9cdvecfill4testFPkZNhG8k>:
   0:	50                   	push   rax
   1:	c4 e2 7d 18 07       	vbroadcastss ymm0,DWORD PTR [rdi]
   6:	59                   	pop    rcx
   7:	c3                   	ret    

Disassembly of section .text._D9cdvecfill4testFiZNhG8i:

0000000000000000 <_D9cdvecfill4testFiZNhG8i>:
   0:	50                   	push   rax
   1:	c5 f9 6e c7          	vmovd  xmm0,edi
   5:	c5 f9 70 c0 00       	vpshufd xmm0,xmm0,0x0
   a:	c4 e3 7d 18 c0 01    	vinsertf128 ymm0,ymm0,xmm0,0x1
  10:	59                   	pop    rcx
  11:	c3                   	ret    
	...

Disassembly of section .text._D9cdvecfill4testFPiZNhG8i:

0000000000000000 <_D9cdvecfill4testFPiZNhG8i>:
   0:	50                   	push   rax
   1:	c4 e2 7d 18 07       	vbroadcastss ymm0,DWORD PTR [rdi]
   6:	59                   	pop    rcx
   7:	c3                   	ret    

Disassembly of section .text._D9cdvecfill4testFmZNhG4m:

0000000000000000 <_D9cdvecfill4testFmZNhG4m>:
   0:	50                   	push   rax
   1:	c4 e1 f9 6e c7       	vmovq  xmm0,rdi
   6:	c5 f9 6c c0          	vpunpcklqdq xmm0,xmm0,xmm0
   a:	c4 e3 7d 18 c0 01    	vinsertf128 ymm0,ymm0,xmm0,0x1
  10:	59                   	pop    rcx
  11:	c3                   	ret    
	...

Disassembly of section .text._D9cdvecfill4testFPmZNhG4m:

0000000000000000 <_D9cdvecfill4testFPmZNhG4m>:
   0:	50                   	push   rax
   1:	c4 e2 7d 19 07       	vbroadcastsd ymm0,QWORD PTR [rdi]
   6:	59                   	pop    rcx
   7:	c3                   	ret    

Disassembly of section .text._D9cdvecfill4testFlZNhG4l:

0000000000000000 <_D9cdvecfill4testFlZNhG4l>:
   0:	50                   	push   rax
   1:	c4 e1 f9 6e c7       	vmovq  xmm0,rdi
   6:	c5 f9 6c c0          	vpunpcklqdq xmm0,xmm0,xmm0
   a:	c4 e3 7d 18 c0 01    	vinsertf128 ymm0,ymm0,xmm0,0x1
  10:	59                   	pop    rcx
  11:	c3                   	ret    
	...

Disassembly of section .text._D9cdvecfill4testFPlZNhG4l:

0000000000000000 <_D9cdvecfill4testFPlZNhG4l>:
   0:	50                   	push   rax
   1:	c4 e2 7d 19 07       	vbroadcastsd ymm0,QWORD PTR [rdi]
   6:	59                   	pop    rcx
   7:	c3                   	ret    

Disassembly of section .text._D9cdvecfill4testFfZNhG8f:

0000000000000000 <_D9cdvecfill4testFfZNhG8f>:
   0:	50                   	push   rax
   1:	c5 fa 11 04 24       	vmovss DWORD PTR [rsp],xmm0
   6:	c5 fa 10 04 24       	vmovss xmm0,DWORD PTR [rsp]
   b:	c5 fc c6 c0 00       	vshufps ymm0,ymm0,ymm0,0x0
  10:	c4 e3 7d 18 c0 01    	vinsertf128 ymm0,ymm0,xmm0,0x1
  16:	59                   	pop    rcx
  17:	c3                   	ret    

Disassembly of section .text._D9cdvecfill4testFPfZNhG8f:

0000000000000000 <_D9cdvecfill4testFPfZNhG8f>:
   0:	50                   	push   rax
   1:	c4 e2 7d 18 07       	vbroadcastss ymm0,DWORD PTR [rdi]
   6:	59                   	pop    rcx
   7:	c3                   	ret    

Disassembly of section .text._D9cdvecfill4testFdZNhG4d:

0000000000000000 <_D9cdvecfill4testFdZNhG4d>:
   0:	50                   	push   rax
   1:	c5 fb 11 04 24       	vmovsd QWORD PTR [rsp],xmm0
   6:	c5 fb 10 04 24       	vmovsd xmm0,QWORD PTR [rsp]
   b:	c5 f9 14 c0          	vunpcklpd xmm0,xmm0,xmm0
   f:	c4 e3 7d 18 c0 01    	vinsertf128 ymm0,ymm0,xmm0,0x1
  15:	59                   	pop    rcx
  16:	c3                   	ret    
	...

Disassembly of section .text._D9cdvecfill4testFPdZNhG4d:

0000000000000000 <_D9cdvecfill4testFPdZNhG4d>:
   0:	50                   	push   rax
   1:	c4 e2 7d 19 07       	vbroadcastsd ymm0,QWORD PTR [rdi]
   6:	59                   	pop    rcx
   7:	c3                   	ret    
